target datalayout = "e-m:e-p270:32:32-p271:32:32-p272:64:64-i64:64-i128:128-f80:128-n8:16:32:64-S128"
target triple = "x86_64-unknown-linux-gnu"

%"class.rocksdb::Slice" = type { ptr, i64 }
%"class.rocksdb::Cleanable" = type { %"struct.rocksdb::Cleanable::Cleanup" }
%"struct.rocksdb::Cleanable::Cleanup" = type { ptr, ptr, ptr, ptr }
%"class.std::unique_ptr" = type { %"struct.std::__uniq_ptr_data" }
%"struct.std::__uniq_ptr_data" = type { %"class.std::__uniq_ptr_impl" }
%"class.std::__uniq_ptr_impl" = type { %"class.std::tuple" }
%"class.std::tuple" = type { %"struct.std::_Tuple_impl" }
%"struct.std::_Tuple_impl" = type { %"struct.std::_Head_base.1" }
%"struct.std::_Head_base.1" = type { ptr }
%"class.rocksdb::IterKey" = type { ptr, ptr, i64, i64, [39 x i8], i8 }
%"class.rocksdb::Status" = type { i8, i8, i8, i8, i8, i8, %"class.std::unique_ptr.2" }
%"class.std::unique_ptr.2" = type { %"struct.std::__uniq_ptr_data.3" }
%"struct.std::__uniq_ptr_data.3" = type { %"class.std::__uniq_ptr_impl.4" }
%"class.std::__uniq_ptr_impl.4" = type { %"class.std::tuple.5" }
%"class.std::tuple.5" = type { %"struct.std::_Tuple_impl.6" }
%"struct.std::_Tuple_impl.6" = type { %"struct.std::_Head_base.9" }
%"struct.std::_Head_base.9" = type { ptr }
%"class.rocksdb::BlockIter.13" = type { %"class.rocksdb::InternalIteratorBase.14", %"class.std::unique_ptr", ptr, i32, i32, i32, i32, %"class.rocksdb::IterKey", %"class.rocksdb::IterKey", %"class.rocksdb::Slice", %"class.rocksdb::Status", %"class.rocksdb::Slice", i64, i64, i8, ptr, i32, i32, i8, i8, i8, ptr }
%"class.rocksdb::InternalIteratorBase.14" = type { ptr, %"class.rocksdb::Cleanable" }

; Function Attrs: mustprogress nounwind uwtable
define linkonce_odr noundef zeroext i8 @_ZNK7rocksdb6Status4codeEv(ptr noundef nonnull align 8 dereferenceable(16) %this) #1 comdat align 2 {
entry:
  %this.addr = alloca ptr, align 8
  store ptr %this, ptr %this.addr, align 8
  %this1 = load ptr, ptr %this.addr, align 8
  call void @_ZNK7rocksdb6Status11MarkCheckedEv(ptr noundef nonnull align 8 dereferenceable(16) %this1)
  %code_ = getelementptr inbounds %"class.rocksdb::Status", ptr %this1, i32 0, i32 0
  %0 = load i8, ptr %code_, align 8
  ret i8 %0
}

; Function Attrs: mustprogress nounwind uwtable
define linkonce_odr void @_ZNK7rocksdb6Status11MarkCheckedEv(ptr noundef nonnull align 8 dereferenceable(16) %this) #1 comdat align 2 {
entry:
  %this.addr = alloca ptr, align 8
  store ptr %this, ptr %this.addr, align 8
  ret void
}

; Function Attrs: mustprogress uwtable
define linkonce_odr noundef zeroext i1 @_ZNK7rocksdb6Status2okEv(ptr noundef nonnull align 8 dereferenceable(16) %this) #0 comdat align 2 {
entry:
  %this.addr = alloca ptr, align 8
  store ptr %this, ptr %this.addr, align 8
  %this1 = load ptr, ptr %this.addr, align 8
  call void @_ZNK7rocksdb6Status11MarkCheckedEv(ptr noundef nonnull align 8 dereferenceable(16) %this1)
  %call = call noundef zeroext i8 @_ZNK7rocksdb6Status4codeEv(ptr noundef nonnull align 8 dereferenceable(16) %this1)
  %conv = zext i8 %call to i32
  %cmp = icmp eq i32 %conv, 0
  ret i1 %cmp
}

; Function Attrs: mustprogress uwtable
define noundef zeroext i1 @_ZN7rocksdb14IndexBlockIter20BinaryBlockIndexSeekERKNS_5SliceEPjjjS4_Pb(ptr noundef nonnull align 8 dereferenceable(408) %this, ptr noundef nonnull align 8 dereferenceable(16) %target, ptr noundef %block_ids, i32 noundef %left, i32 noundef %right, ptr noundef %index, ptr noundef %prefix_may_exist) #0 align 2 {
entry:
  %retval = alloca i1, align 1
  %this.addr = alloca ptr, align 8
  %target.addr = alloca ptr, align 8
  %block_ids.addr = alloca ptr, align 8
  %left.addr = alloca i32, align 4
  %right.addr = alloca i32, align 4
  %index.addr = alloca ptr, align 8
  %prefix_may_exist.addr = alloca ptr, align 8
  %left_bound = alloca i32, align 4
  %mid = alloca i32, align 4
  %cmp2 = alloca i32, align 4
  %right_index = alloca i32, align 4
  store ptr %this, ptr %this.addr, align 8
  store ptr %target, ptr %target.addr, align 8
  store ptr %block_ids, ptr %block_ids.addr, align 8
  store i32 %left, ptr %left.addr, align 4
  store i32 %right, ptr %right.addr, align 4
  store ptr %index, ptr %index.addr, align 8
  store ptr %prefix_may_exist, ptr %prefix_may_exist.addr, align 8
  %this1 = load ptr, ptr %this.addr, align 8
  %0 = load ptr, ptr %prefix_may_exist.addr, align 8
  store i8 1, ptr %0, align 1
  %1 = load i32, ptr %left.addr, align 4
  store i32 %1, ptr %left_bound, align 4
  br label %while.cond

while.cond:                                       ; preds = %if.end10, %entry
  %2 = load i32, ptr %left.addr, align 4
  %3 = load i32, ptr %right.addr, align 4
  %cmp = icmp ule i32 %2, %3
  br i1 %cmp, label %while.body, label %while.end

while.body:                                       ; preds = %while.cond
  %4 = load i32, ptr %right.addr, align 4
  %5 = load i32, ptr %left.addr, align 4
  %add = add i32 %4, %5
  %div = udiv i32 %add, 2
  store i32 %div, ptr %mid, align 4
  %6 = load ptr, ptr %block_ids.addr, align 8
  %7 = load i32, ptr %mid, align 4
  %idxprom = zext i32 %7 to i64
  %arrayidx = getelementptr inbounds i32, ptr %6, i64 %idxprom
  %8 = load i32, ptr %arrayidx, align 4
  %9 = load ptr, ptr %target.addr, align 8
  %call = call noundef i32 @_ZN7rocksdb14IndexBlockIter15CompareBlockKeyEjRKNS_5SliceE(ptr noundef nonnull align 8 dereferenceable(408) %this1, i32 noundef %8, ptr noundef nonnull align 8 dereferenceable(16) %9)
  store i32 %call, ptr %cmp2, align 4
  %status_ = getelementptr inbounds %"class.rocksdb::BlockIter.13", ptr %this1, i32 0, i32 10
  %call3 = call noundef zeroext i1 @_ZNK7rocksdb6Status2okEv(ptr noundef nonnull align 8 dereferenceable(16) %status_)
  br i1 %call3, label %if.end, label %if.then

if.then:                                          ; preds = %while.body
  store i1 false, ptr %retval, align 1
  br label %return

if.end:                                           ; preds = %while.body
  %10 = load i32, ptr %cmp2, align 4
  %cmp4 = icmp slt i32 %10, 0
  br i1 %cmp4, label %if.then5, label %if.else

if.then5:                                         ; preds = %if.end
  %11 = load i32, ptr %mid, align 4
  %add6 = add i32 %11, 1
  store i32 %add6, ptr %left.addr, align 4
  br label %if.end10

if.else:                                          ; preds = %if.end
  %12 = load i32, ptr %left.addr, align 4
  %13 = load i32, ptr %right.addr, align 4
  %cmp7 = icmp eq i32 %12, %13
  br i1 %cmp7, label %if.then8, label %if.end9

if.then8:                                         ; preds = %if.else
  br label %while.end

if.end9:                                          ; preds = %if.else
  %14 = load i32, ptr %mid, align 4
  store i32 %14, ptr %right.addr, align 4
  br label %if.end10

if.end10:                                         ; preds = %if.end9, %if.then5
  br label %while.cond, !llvm.loop !23

while.end:                                        ; preds = %if.then8, %while.cond
  %15 = load i32, ptr %left.addr, align 4
  %16 = load i32, ptr %right.addr, align 4
  %cmp11 = icmp eq i32 %15, %16
  br i1 %cmp11, label %if.then12, label %if.else33

if.then12:                                        ; preds = %while.end
  %17 = load ptr, ptr %block_ids.addr, align 8
  %18 = load i32, ptr %left.addr, align 4
  %idxprom13 = zext i32 %18 to i64
  %arrayidx14 = getelementptr inbounds i32, ptr %17, i64 %idxprom13
  %19 = load i32, ptr %arrayidx14, align 4
  %cmp15 = icmp ugt i32 %19, 0
  br i1 %cmp15, label %land.lhs.true, label %if.end30

land.lhs.true:                                    ; preds = %if.then12
  %20 = load i32, ptr %left.addr, align 4
  %21 = load i32, ptr %left_bound, align 4
  %cmp16 = icmp eq i32 %20, %21
  br i1 %cmp16, label %land.lhs.true23, label %lor.lhs.false

lor.lhs.false:                                    ; preds = %land.lhs.true
  %22 = load ptr, ptr %block_ids.addr, align 8
  %23 = load i32, ptr %left.addr, align 4
  %sub = sub i32 %23, 1
  %idxprom17 = zext i32 %sub to i64
  %arrayidx18 = getelementptr inbounds i32, ptr %22, i64 %idxprom17
  %24 = load i32, ptr %arrayidx18, align 4
  %25 = load ptr, ptr %block_ids.addr, align 8
  %26 = load i32, ptr %left.addr, align 4
  %idxprom19 = zext i32 %26 to i64
  %arrayidx20 = getelementptr inbounds i32, ptr %25, i64 %idxprom19
  %27 = load i32, ptr %arrayidx20, align 4
  %sub21 = sub i32 %27, 1
  %cmp22 = icmp ne i32 %24, %sub21
  br i1 %cmp22, label %land.lhs.true23, label %if.end30

land.lhs.true23:                                  ; preds = %lor.lhs.false, %land.lhs.true
  %28 = load ptr, ptr %block_ids.addr, align 8
  %29 = load i32, ptr %left.addr, align 4
  %idxprom24 = zext i32 %29 to i64
  %arrayidx25 = getelementptr inbounds i32, ptr %28, i64 %idxprom24
  %30 = load i32, ptr %arrayidx25, align 4
  %sub26 = sub i32 %30, 1
  %31 = load ptr, ptr %target.addr, align 8
  %call27 = call noundef i32 @_ZN7rocksdb14IndexBlockIter15CompareBlockKeyEjRKNS_5SliceE(ptr noundef nonnull align 8 dereferenceable(408) %this1, i32 noundef %sub26, ptr noundef nonnull align 8 dereferenceable(16) %31)
  %cmp28 = icmp sgt i32 %call27, 0
  br i1 %cmp28, label %if.then29, label %if.end30

if.then29:                                        ; preds = %land.lhs.true23
  %restarts_ = getelementptr inbounds %"class.rocksdb::BlockIter.13", ptr %this1, i32 0, i32 5
  %32 = load i32, ptr %restarts_, align 8
  %current_ = getelementptr inbounds %"class.rocksdb::BlockIter.13", ptr %this1, i32 0, i32 6
  store i32 %32, ptr %current_, align 4
  %33 = load ptr, ptr %prefix_may_exist.addr, align 8
  store i8 0, ptr %33, align 1
  store i1 false, ptr %retval, align 1
  br label %return

if.end30:                                         ; preds = %land.lhs.true23, %lor.lhs.false, %if.then12
  %34 = load ptr, ptr %block_ids.addr, align 8
  %35 = load i32, ptr %left.addr, align 4
  %idxprom31 = zext i32 %35 to i64
  %arrayidx32 = getelementptr inbounds i32, ptr %34, i64 %idxprom31
  %36 = load i32, ptr %arrayidx32, align 4
  %37 = load ptr, ptr %index.addr, align 8
  store i32 %36, ptr %37, align 4
  store i1 true, ptr %retval, align 1
  br label %return

if.else33:                                        ; preds = %while.end
  %38 = load ptr, ptr %block_ids.addr, align 8
  %39 = load i32, ptr %right.addr, align 4
  %idxprom34 = zext i32 %39 to i64
  %arrayidx35 = getelementptr inbounds i32, ptr %38, i64 %idxprom34
  %40 = load i32, ptr %arrayidx35, align 4
  store i32 %40, ptr %right_index, align 4
  %41 = load i32, ptr %right_index, align 4
  %add36 = add i32 %41, 1
  %num_restarts_ = getelementptr inbounds %"class.rocksdb::BlockIter.13", ptr %this1, i32 0, i32 3
  %42 = load i32, ptr %num_restarts_, align 8
  %cmp37 = icmp ult i32 %add36, %42
  br i1 %cmp37, label %if.then38, label %if.end46

if.then38:                                        ; preds = %if.else33
  %43 = load i32, ptr %right_index, align 4
  %add39 = add i32 %43, 1
  %44 = load ptr, ptr %target.addr, align 8
  %call40 = call noundef i32 @_ZN7rocksdb14IndexBlockIter15CompareBlockKeyEjRKNS_5SliceE(ptr noundef nonnull align 8 dereferenceable(408) %this1, i32 noundef %add39, ptr noundef nonnull align 8 dereferenceable(16) %44)
  %cmp41 = icmp sge i32 %call40, 0
  br i1 %cmp41, label %if.then42, label %if.else44

if.then42:                                        ; preds = %if.then38
  %45 = load i32, ptr %right_index, align 4
  %add43 = add i32 %45, 1
  %46 = load ptr, ptr %index.addr, align 8
  store i32 %add43, ptr %46, align 4
  store i1 true, ptr %retval, align 1
  br label %return

if.else44:                                        ; preds = %if.then38
  %47 = load ptr, ptr %prefix_may_exist.addr, align 8
  store i8 0, ptr %47, align 1
  br label %if.end45

if.end45:                                         ; preds = %if.else44
  br label %if.end46

if.end46:                                         ; preds = %if.end45, %if.else33
  %restarts_47 = getelementptr inbounds %"class.rocksdb::BlockIter.13", ptr %this1, i32 0, i32 5
  %48 = load i32, ptr %restarts_47, align 8
  %current_48 = getelementptr inbounds %"class.rocksdb::BlockIter.13", ptr %this1, i32 0, i32 6
  store i32 %48, ptr %current_48, align 4
  store i1 false, ptr %retval, align 1
  br label %return

return:                                           ; preds = %if.end46, %if.then42, %if.end30, %if.then29, %if.then
  %49 = load i1, ptr %retval, align 1
  ret i1 %49
}