; Function Attrs: mustprogress uwtable
define noundef zeroext i1 @_ZN7rocksdb14IndexBlockIter20BinaryBlockIndexSeekERKNS_5SliceEPjjjS4_Pb(ptr noundef nonnull align 8 dereferenceable(408) %this, ptr noundef nonnull align 8 dereferenceable(16) %target, ptr nocapture noundef readonly %block_ids, i32 noundef %left, i32 noundef %right, ptr nocapture noundef writeonly %index, ptr nocapture noundef writeonly %prefix_may_exist) local_unnamed_addr #1 align 2 {
entry:
  store i8 1, ptr %prefix_may_exist, align 1
  %cmp.not33 = icmp ugt i32 %left, %right
  br i1 %cmp.not33, label %while.end, label %while.body.lr.ph

while.body.lr.ph:                                 ; preds = %entry
  %status_ = getelementptr inbounds i8, ptr %this, i64 232
  br label %while.body

while.body:                                       ; preds = %while.body.lr.ph, %if.end10
  %left.addr.035 = phi i32 [ %left, %while.body.lr.ph ], [ %left.addr.1, %if.end10 ]
  %right.addr.034 = phi i32 [ %right, %while.body.lr.ph ], [ %right.addr.1, %if.end10 ]
  %add = add i32 %left.addr.035, %right.addr.034
  %div30 = lshr i32 %add, 1
  %idxprom = zext nneg i32 %div30 to i64
  %arrayidx = getelementptr inbounds i32, ptr %block_ids, i64 %idxprom
  %0 = load i32, ptr %arrayidx, align 4
  %call = tail call noundef i32 @_ZN7rocksdb14IndexBlockIter15CompareBlockKeyEjRKNS_5SliceE(ptr noundef nonnull align 8 dereferenceable(408) %this, i32 noundef %0, ptr noundef nonnull align 8 dereferenceable(16) %target)
  %1 = load i8, ptr %status_, align 8
  %cmp.i = icmp eq i8 %1, 0
  br i1 %cmp.i, label %if.end, label %return

if.end:                                           ; preds = %while.body
  %cmp4 = icmp slt i32 %call, 0
  br i1 %cmp4, label %if.then5, label %if.else

if.then5:                                         ; preds = %if.end
  %add6 = add nuw i32 %div30, 1
  br label %if.end10

if.else:                                          ; preds = %if.end
  %cmp7 = icmp eq i32 %left.addr.035, %right.addr.034
  br i1 %cmp7, label %if.then12, label %if.end10

if.end10:                                         ; preds = %if.else, %if.then5
  %right.addr.1 = phi i32 [ %right.addr.034, %if.then5 ], [ %div30, %if.else ]
  %left.addr.1 = phi i32 [ %add6, %if.then5 ], [ %left.addr.035, %if.else ]
  %cmp.not = icmp ugt i32 %left.addr.1, %right.addr.1
  br i1 %cmp.not, label %while.end, label %while.body, !llvm.loop !31

while.end:                                        ; preds = %if.end10, %entry
  %right.addr.0.lcssa = phi i32 [ %right, %entry ], [ %right.addr.1, %if.end10 ]
  %left.addr.0.lcssa = phi i32 [ %left, %entry ], [ %left.addr.1, %if.end10 ]
  %cmp11 = icmp eq i32 %left.addr.0.lcssa, %right.addr.0.lcssa
  br i1 %cmp11, label %if.then12, label %if.else33

if.then12:                                        ; preds = %if.else, %while.end
  %right.addr.0.lcssa43 = phi i32 [ %right.addr.0.lcssa, %while.end ], [ %left.addr.035, %if.else ]
  %idxprom13 = zext i32 %right.addr.0.lcssa43 to i64
  %arrayidx14 = getelementptr inbounds i32, ptr %block_ids, i64 %idxprom13
  %2 = load i32, ptr %arrayidx14, align 4
  %cmp15.not = icmp eq i32 %2, 0
  br i1 %cmp15.not, label %if.end30, label %land.lhs.true

land.lhs.true:                                    ; preds = %if.then12
  %cmp16 = icmp eq i32 %right.addr.0.lcssa43, %left
  br i1 %cmp16, label %land.lhs.true.land.lhs.true23_crit_edge, label %lor.lhs.false

land.lhs.true.land.lhs.true23_crit_edge:          ; preds = %land.lhs.true
  %.pre39 = add i32 %2, -1
  br label %land.lhs.true23

lor.lhs.false:                                    ; preds = %land.lhs.true
  %sub = add i32 %right.addr.0.lcssa43, -1
  %idxprom17 = zext i32 %sub to i64
  %arrayidx18 = getelementptr inbounds i32, ptr %block_ids, i64 %idxprom17
  %3 = load i32, ptr %arrayidx18, align 4
  %sub21 = add i32 %2, -1
  %cmp22.not = icmp eq i32 %3, %sub21
  br i1 %cmp22.not, label %if.end30, label %land.lhs.true23

land.lhs.true23:                                  ; preds = %land.lhs.true.land.lhs.true23_crit_edge, %lor.lhs.false
  %sub26.pre-phi = phi i32 [ %.pre39, %land.lhs.true.land.lhs.true23_crit_edge ], [ %sub21, %lor.lhs.false ]
  %call27 = tail call noundef i32 @_ZN7rocksdb14IndexBlockIter15CompareBlockKeyEjRKNS_5SliceE(ptr noundef nonnull align 8 dereferenceable(408) %this, i32 noundef %sub26.pre-phi, ptr noundef nonnull align 8 dereferenceable(16) %target)
  %cmp28 = icmp sgt i32 %call27, 0
  br i1 %cmp28, label %if.then29, label %land.lhs.true23.if.end30_crit_edge

land.lhs.true23.if.end30_crit_edge:               ; preds = %land.lhs.true23
  %.pre = load i32, ptr %arrayidx14, align 4
  br label %if.end30

if.then29:                                        ; preds = %land.lhs.true23
  %restarts_ = getelementptr inbounds i8, ptr %this, i64 64
  %4 = load i32, ptr %restarts_, align 8
  %current_ = getelementptr inbounds i8, ptr %this, i64 68
  store i32 %4, ptr %current_, align 4
  store i8 0, ptr %prefix_may_exist, align 1
  br label %return

if.end30:                                         ; preds = %land.lhs.true23.if.end30_crit_edge, %lor.lhs.false, %if.then12
  %5 = phi i32 [ %.pre, %land.lhs.true23.if.end30_crit_edge ], [ %2, %lor.lhs.false ], [ 0, %if.then12 ]
  store i32 %5, ptr %index, align 4
  br label %return

if.else33:                                        ; preds = %while.end
  %idxprom34 = zext i32 %right.addr.0.lcssa to i64
  %arrayidx35 = getelementptr inbounds i32, ptr %block_ids, i64 %idxprom34
  %6 = load i32, ptr %arrayidx35, align 4
  %add36 = add i32 %6, 1
  %num_restarts_ = getelementptr inbounds i8, ptr %this, i64 56
  %7 = load i32, ptr %num_restarts_, align 8
  %cmp37 = icmp ult i32 %add36, %7
  br i1 %cmp37, label %if.then38, label %if.end46

if.then38:                                        ; preds = %if.else33
  %call40 = tail call noundef i32 @_ZN7rocksdb14IndexBlockIter15CompareBlockKeyEjRKNS_5SliceE(ptr noundef nonnull align 8 dereferenceable(408) %this, i32 noundef %add36, ptr noundef nonnull align 8 dereferenceable(16) %target)
  %cmp41 = icmp sgt i32 %call40, -1
  br i1 %cmp41, label %if.then42, label %if.else44

if.then42:                                        ; preds = %if.then38
  store i32 %add36, ptr %index, align 4
  br label %return

if.else44:                                        ; preds = %if.then38
  store i8 0, ptr %prefix_may_exist, align 1
  br label %if.end46

if.end46:                                         ; preds = %if.else44, %if.else33
  %restarts_47 = getelementptr inbounds i8, ptr %this, i64 64
  %8 = load i32, ptr %restarts_47, align 8
  %current_48 = getelementptr inbounds i8, ptr %this, i64 68
  store i32 %8, ptr %current_48, align 4
  br label %return

return:                                           ; preds = %while.body, %if.end46, %if.then42, %if.end30, %if.then29
  %retval.0 = phi i1 [ false, %if.then29 ], [ true, %if.end30 ], [ true, %if.then42 ], [ false, %if.end46 ], [ false, %while.body ]
  ret i1 %retval.0
}